target datalayout = "e-m:e-p270:32:32-p271:32:32-p272:64:64-i64:64-i128:128-f80:128-n8:16:32:64-S128"
target triple = "x86_64-pc-linux-gnu"

@hf_cgmi_manufacturer_id = internal global i32 0, align 4

; Function Attrs: null_pointer_is_valid sspstrong uwtable
define internal zeroext i1 @dissect_cgmi_parameter(ptr noundef %0, ptr noundef %1, ptr noundef %2, i32 noundef %3, i32 noundef %4, i16 noundef zeroext %5, ptr noundef %6, i32 noundef %7, i32 noundef %8, ptr noundef %9, ptr noundef %10) #0 {
  %12 = alloca i1, align 1
  %13 = alloca ptr, align 8
  %14 = alloca ptr, align 8
  %15 = alloca ptr, align 8
  %16 = alloca i32, align 4
  %17 = alloca i32, align 4
  %18 = alloca i16, align 2
  %19 = alloca ptr, align 8
  %20 = alloca i32, align 4
  %21 = alloca i32, align 4
  %22 = alloca ptr, align 8
  %23 = alloca ptr, align 8
  store ptr %0, ptr %13, align 8
  store ptr %1, ptr %14, align 8
  store ptr %2, ptr %15, align 8
  store i32 %3, ptr %16, align 4
  store i32 %4, ptr %17, align 4
  store i16 %5, ptr %18, align 2
  store ptr %6, ptr %19, align 8
  store i32 %7, ptr %20, align 4
  store i32 %8, ptr %21, align 4
  store ptr %9, ptr %22, align 8
  store ptr %10, ptr %23, align 8
  %24 = load i32, ptr %17, align 4
  %25 = icmp eq i32 %24, 1
  br i1 %25, label %26, label %30

26:                                               ; preds = %11
  %27 = load i16, ptr %18, align 2
  %28 = zext i16 %27 to i32
  %29 = icmp eq i32 %28, 58
  br i1 %29, label %31, label %30

30:                                               ; preds = %26, %11
  store i1 false, ptr %12, align 1
  br label %42

31:                                               ; preds = %26
  %32 = load i32, ptr %20, align 4
  %33 = icmp ugt i32 %32, 1
  br i1 %33, label %34, label %35

34:                                               ; preds = %31
  store i1 false, ptr %12, align 1
  br label %42

35:                                               ; preds = %31
  %36 = load ptr, ptr %15, align 8
  %37 = load i32, ptr @hf_cgmi_manufacturer_id, align 4
  %38 = load ptr, ptr %13, align 8
  %39 = load i32, ptr %16, align 4
  %40 = load i32, ptr %21, align 4
  %41 = call ptr @proto_tree_add_item(ptr noundef %36, i32 noundef %37, ptr noundef %38, i32 noundef %39, i32 noundef %40, i32 noundef 0)
  store i1 true, ptr %12, align 1
  br label %42

42:                                               ; preds = %35, %34, %30
  %43 = load i1, ptr %12, align 1
  ret i1 %43
}